(dp1
S'activeMode'
p2
Vinput
p3
sS'expInitials'
p4
VMZ
p5
sS'subjCode'
p6
VBird_117
p7
sS'gender'
p8
Vm
sS'age'
p9
V10
p10
sS'pygazeVersion'
p11
V06
p12
sS'eyetracker'
p13
Vno
p14
sS'inputDevice'
p15
Vmouse
p16
sS'expName'
p17
VBird
p18
sS'dateStr'
p19
V2016_Nov_18_2214
p20
sS'seed'
p21
I101
s.